; Function Attrs: nounwind uwtable
define hidden void @zim_XMLReader_moveToAttribute(ptr nocapture noundef readonly %0, ptr nocapture noundef writeonly %1) #0 {
  %3 = alloca i64, align 8
  %4 = alloca ptr, align 8
  store i64 0, ptr %3, align 8
  %5 = getelementptr inbounds i8, ptr %0, i64 32
  %6 = getelementptr inbounds i8, ptr %0, i64 44
  %7 = load i32, ptr %6, align 4
  %8 = call i32 (i32, ptr, ...) @zend_parse_parameters(i32 noundef %7, ptr noundef nonnull @.str.12, ptr noundef nonnull %4, ptr noundef nonnull %3) #11
  %9 = icmp eq i32 %8, -1
  br i1 %9, label %10, label %13

10:                                               ; preds = %2
  %11 = load ptr, ptr getelementptr inbounds (%struct._zend_executor_globals, ptr @executor_globals, i64 0, i32 50), align 8
  %12 = icmp ne ptr %11, null
  call void @llvm.assume(i1 %12)
  br label %31

13:                                               ; preds = %2
  %14 = load i64, ptr %3, align 8
  %15 = icmp eq i64 %14, 0
  br i1 %15, label %16, label %19

16:                                               ; preds = %13
  call void (i32, ptr, ...) @zend_argument_value_error(i32 noundef 1, ptr noundef nonnull @.str.9) #11
  %17 = load ptr, ptr getelementptr inbounds (%struct._zend_executor_globals, ptr @executor_globals, i64 0, i32 50), align 8
  %18 = icmp ne ptr %17, null
  call void @llvm.assume(i1 %18)
  br label %31

19:                                               ; preds = %13
  %20 = load ptr, ptr %5, align 8
  %21 = getelementptr inbounds i8, ptr %20, i64 -32
  %22 = load ptr, ptr %21, align 8
  %.not = icmp eq ptr %22, null
  br i1 %.not, label %29, label %23

23:                                               ; preds = %19
  %24 = load ptr, ptr %4, align 8
  %25 = call i32 @xmlTextReaderMoveToAttribute(ptr noundef nonnull %22, ptr noundef %24) #11
  %26 = icmp eq i32 %25, 1
  br i1 %26, label %27, label %29

27:                                               ; preds = %23
  %28 = getelementptr inbounds i8, ptr %1, i64 8
  store i32 3, ptr %28, align 8
  br label %31

29:                                               ; preds = %23, %19
  %30 = getelementptr inbounds i8, ptr %1, i64 8
  store i32 2, ptr %30, align 8
  br label %31

31:                                               ; preds = %29, %27, %16, %10
  ret void
}